(lp0
(dp1
Vdia
p2
(lp3
(dp4
Vnombre
p5
Vdia 1
p6
sVejercicio
p7
(lp8
(dp9
Vdescripcion
p10
VPress en Banca
p11
sVnombre
p12
Vpress_banca
p13
sVpeso_max
p14
I-1
sVimagen
p15
ccopy_reg
_reconstructor
p16
(cbson.objectid
ObjectId
p17
c__builtin__
object
p18
Ntp19
Rp20
S'X\xe7\x91\xbb\x0f\x06x\x00$\xdf\xe5S'
p21
bsVserie
p22
(lp23
(dp24
Vrepeticiones
p25
I5
sVporcentaje_peso_max
p26
I65
sVnumero
p27
I1
sVcarga
p28
I-1
sa(dp29
Vrepeticiones
p30
I5
sVporcentaje_peso_max
p31
I75
sVnumero
p32
I2
sVcarga
p33
I-1
sa(dp34
Vrepeticiones
p35
I5
sVporcentaje_peso_max
p36
I85
sVnumero
p37
I3
sVcarga
p38
I-1
sasa(dp39
Vdescripcion
p40
VApertura con Mancuernas
p41
sVnombre
p42
Vapertura_mancuerna
p43
sVcarga
p44
I-1
sVserie
p45
(lp46
(dp47
Vrepeticiones
p48
I15
sVnumero
p49
I1
sVcarga
p50
I-1
sa(dp51
Vrepeticiones
p52
I15
sVnumero
p53
I2
sVcarga
p54
I-1
sa(dp55
Vrepeticiones
p56
I15
sVnumero
p57
I3
sVcarga
p58
I-1
sa(dp59
Vrepeticiones
p60
I15
sVnumero
p61
I5
sVcarga
p62
I-1
sa(dp63
Vrepeticiones
p64
I15
sVnumero
p65
I5
sVcarga
p66
I-1
sasa(dp67
Vdescripcion
p68
VRemo con Mancuernas
p69
sVnombre
p70
Vremo_mancuerna
p71
sVcarga
p72
I-1
sVserie
p73
(lp74
(dp75
Vrepeticiones
p76
I10
sVnumero
p77
I1
sVcarga
p78
I-1
sa(dp79
Vrepeticiones
p80
I10
sVnumero
p81
I2
sVcarga
p82
I-1
sa(dp83
Vrepeticiones
p84
I10
sVnumero
p85
I3
sVcarga
p86
I-1
sa(dp87
Vrepeticiones
p88
I10
sVnumero
p89
I5
sVcarga
p90
I-1
sa(dp91
Vrepeticiones
p92
I10
sVnumero
p93
I5
sVcarga
p94
I-1
sasasasVentrenador
p95
V59898223226
p96
sVdescripcion
p97
Vlala lala
p98
sVnombre
p99
Vrutina1
p100
sVprofesor
p101
V59898223226
p102
sV_id
p103
g16
(g17
g18
Ntp104
Rp105
S'X\xdc\xfc\xae\xff\xcc\xfe\x00\x10\x90VL'
p106
bsa.